target datalayout = "e-m:e-p270:32:32-p271:32:32-p272:64:64-i64:64-i128:128-f80:128-n8:16:32:64-S128"
target triple = "x86_64-pc-linux-gnu"

%"struct.boost::unit_test::results_reporter::(anonymous namespace)::results_reporter_impl" = type { %"class.boost::unit_test::test_tree_visitor", ptr, %"class.boost::scoped_ptr", i32, %"class.boost::scoped_ptr.0" }
%"class.boost::unit_test::test_tree_visitor" = type { ptr }
%"class.boost::scoped_ptr" = type { ptr }
%"class.boost::scoped_ptr.0" = type { ptr }
%"class.std::ios_base" = type { ptr, i64, i64, i32, i32, i32, ptr, %"struct.std::ios_base::_Words", [8 x %"struct.std::ios_base::_Words"], i32, ptr, %"class.std::locale" }
%"struct.std::ios_base::_Words" = type { ptr, i64 }
%"class.std::locale" = type { ptr }
%"class.boost::io::ios_base_all_saver" = type { ptr, i32, i64, i64 }

; Function Attrs: mustprogress nounwind uwtable
define linkonce_odr hidden noundef i32 @_ZNSt8ios_base5flagsESt13_Ios_Fmtflags(ptr noundef nonnull align 8 dereferenceable(216) %0, i32 noundef %1) #5 comdat align 2 {
  %3 = alloca ptr, align 8
  %4 = alloca i32, align 4
  %5 = alloca i32, align 4
  store ptr %0, ptr %3, align 8, !tbaa !3
  store i32 %1, ptr %4, align 4, !tbaa !47
  %6 = load ptr, ptr %3, align 8
  call void @llvm.lifetime.start.p0(i64 4, ptr %5) #3
  %7 = getelementptr inbounds nuw %"class.std::ios_base", ptr %6, i32 0, i32 3
  %8 = load i32, ptr %7, align 8, !tbaa !39
  store i32 %8, ptr %5, align 4, !tbaa !47
  %9 = load i32, ptr %4, align 4, !tbaa !47
  %10 = getelementptr inbounds nuw %"class.std::ios_base", ptr %6, i32 0, i32 3
  store i32 %9, ptr %10, align 8, !tbaa !39
  %11 = load i32, ptr %5, align 4, !tbaa !47
  call void @llvm.lifetime.end.p0(i64 4, ptr %5) #3
  ret i32 %11
}

; Function Attrs: mustprogress nounwind uwtable
define linkonce_odr hidden noundef i64 @_ZNSt8ios_base9precisionEl(ptr noundef nonnull align 8 dereferenceable(216) %0, i64 noundef %1) #5 comdat align 2 {
  %3 = alloca ptr, align 8
  %4 = alloca i64, align 8
  %5 = alloca i64, align 8
  store ptr %0, ptr %3, align 8, !tbaa !3
  store i64 %1, ptr %4, align 8, !tbaa !31
  %6 = load ptr, ptr %3, align 8
  call void @llvm.lifetime.start.p0(i64 8, ptr %5) #3
  %7 = getelementptr inbounds nuw %"class.std::ios_base", ptr %6, i32 0, i32 1
  %8 = load i64, ptr %7, align 8, !tbaa !45
  store i64 %8, ptr %5, align 8, !tbaa !31
  %9 = load i64, ptr %4, align 8, !tbaa !31
  %10 = getelementptr inbounds nuw %"class.std::ios_base", ptr %6, i32 0, i32 1
  store i64 %9, ptr %10, align 8, !tbaa !45
  %11 = load i64, ptr %5, align 8, !tbaa !31
  call void @llvm.lifetime.end.p0(i64 8, ptr %5) #3
  ret i64 %11
}

; Function Attrs: mustprogress nounwind uwtable
define linkonce_odr hidden noundef i64 @_ZNSt8ios_base5widthEl(ptr noundef nonnull align 8 dereferenceable(216) %0, i64 noundef %1) #5 comdat align 2 {
  %3 = alloca ptr, align 8
  %4 = alloca i64, align 8
  %5 = alloca i64, align 8
  store ptr %0, ptr %3, align 8, !tbaa !3
  store i64 %1, ptr %4, align 8, !tbaa !31
  %6 = load ptr, ptr %3, align 8
  call void @llvm.lifetime.start.p0(i64 8, ptr %5) #3
  %7 = getelementptr inbounds nuw %"class.std::ios_base", ptr %6, i32 0, i32 2
  %8 = load i64, ptr %7, align 8, !tbaa !46
  store i64 %8, ptr %5, align 8, !tbaa !31
  %9 = load i64, ptr %4, align 8, !tbaa !31
  %10 = getelementptr inbounds nuw %"class.std::ios_base", ptr %6, i32 0, i32 2
  store i64 %9, ptr %10, align 8, !tbaa !46
  %11 = load i64, ptr %5, align 8, !tbaa !31
  call void @llvm.lifetime.end.p0(i64 8, ptr %5) #3
  ret i64 %11
}

; Function Attrs: noinline noreturn nounwind uwtable
define linkonce_odr hidden void @__clang_call_terminate(ptr noundef %0) #11 comdat {
  %2 = call ptr @__cxa_begin_catch(ptr %0) #3
  call void @_ZSt9terminatev() #15
  unreachable
}

; Function Attrs: mustprogress uwtable
define linkonce_odr hidden void @_ZN5boost2io18ios_base_all_saver7restoreEv(ptr noundef nonnull align 8 dereferenceable(32) %0) #4 comdat align 2 {
  %2 = alloca ptr, align 8
  store ptr %0, ptr %2, align 8, !tbaa !3
  %3 = load ptr, ptr %2, align 8
  %4 = getelementptr inbounds nuw %"class.boost::io::ios_base_all_saver", ptr %3, i32 0, i32 0
  %5 = load ptr, ptr %4, align 8, !tbaa !33
  %6 = getelementptr inbounds nuw %"class.boost::io::ios_base_all_saver", ptr %3, i32 0, i32 3
  %7 = load i64, ptr %6, align 8, !tbaa !23
  %8 = call noundef i64 @_ZNSt8ios_base5widthEl(ptr noundef nonnull align 8 dereferenceable(216) %5, i64 noundef %7)
  %9 = getelementptr inbounds nuw %"class.boost::io::ios_base_all_saver", ptr %3, i32 0, i32 0
  %10 = load ptr, ptr %9, align 8, !tbaa !33
  %11 = getelementptr inbounds nuw %"class.boost::io::ios_base_all_saver", ptr %3, i32 0, i32 2
  %12 = load i64, ptr %11, align 8, !tbaa !22
  %13 = call noundef i64 @_ZNSt8ios_base9precisionEl(ptr noundef nonnull align 8 dereferenceable(216) %10, i64 noundef %12)
  %14 = getelementptr inbounds nuw %"class.boost::io::ios_base_all_saver", ptr %3, i32 0, i32 0
  %15 = load ptr, ptr %14, align 8, !tbaa !33
  %16 = getelementptr inbounds nuw %"class.boost::io::ios_base_all_saver", ptr %3, i32 0, i32 1
  %17 = load i32, ptr %16, align 8, !tbaa !18
  %18 = call noundef i32 @_ZNSt8ios_base5flagsESt13_Ios_Fmtflags(ptr noundef nonnull align 8 dereferenceable(216) %15, i32 noundef %17)
  ret void
}

; Function Attrs: mustprogress nounwind uwtable
define linkonce_odr hidden void @_ZN5boost2io18ios_base_all_saverD2Ev(ptr noundef nonnull align 8 dereferenceable(32) %0) unnamed_addr #5 comdat align 2 personality ptr @__gxx_personality_v0 {
  %2 = alloca ptr, align 8
  store ptr %0, ptr %2, align 8, !tbaa !3
  %3 = load ptr, ptr %2, align 8
  invoke void @_ZN5boost2io18ios_base_all_saver7restoreEv(ptr noundef nonnull align 8 dereferenceable(32) %3)
          to label %4 unwind label %5

4:                                                ; preds = %1
  ret void

5:                                                ; preds = %1
  %6 = landingpad { ptr, i32 }
          catch ptr null
  %7 = extractvalue { ptr, i32 } %6, 0
  call void @__clang_call_terminate(ptr %7) #15
  unreachable
}

; Function Attrs: inlinehint mustprogress nounwind uwtable
define linkonce_odr hidden void @_ZN5boost14checked_deleteINS_2io18ios_base_all_saverEEEvPT_(ptr noundef %0) #8 comdat {
  %2 = alloca ptr, align 8
  store ptr %0, ptr %2, align 8, !tbaa !3
  %3 = load ptr, ptr %2, align 8, !tbaa !3
  %4 = icmp eq ptr %3, null
  br i1 %4, label %6, label %5

5:                                                ; preds = %1
  call void @_ZN5boost2io18ios_base_all_saverD2Ev(ptr noundef nonnull align 8 dereferenceable(32) %3) #3
  call void @_ZdlPvm(ptr noundef %3, i64 noundef 32) #14
  br label %6

6:                                                ; preds = %5, %1
  ret void
}

; Function Attrs: inlinehint mustprogress nounwind uwtable
define linkonce_odr hidden void @_ZN5boost14checked_deleteINS_9unit_test16results_reporter6formatEEEvPT_(ptr noundef %0) #8 comdat {
  %2 = alloca ptr, align 8
  store ptr %0, ptr %2, align 8, !tbaa !3
  %3 = load ptr, ptr %2, align 8, !tbaa !3
  %4 = icmp eq ptr %3, null
  br i1 %4, label %9, label %5

5:                                                ; preds = %1
  %6 = load ptr, ptr %3, align 8, !tbaa !16
  %7 = getelementptr inbounds ptr, ptr %6, i64 1
  %8 = load ptr, ptr %7, align 8
  call void %8(ptr noundef nonnull align 8 dereferenceable(8) %3) #3
  br label %9

9:                                                ; preds = %5, %1
  ret void
}

; Function Attrs: mustprogress nounwind uwtable
define linkonce_odr hidden void @_ZN5boost9unit_test17test_tree_visitorD2Ev(ptr noundef nonnull align 8 dereferenceable(8) %0) unnamed_addr #5 comdat align 2 {
  %2 = alloca ptr, align 8
  store ptr %0, ptr %2, align 8, !tbaa !3
  ret void
}

; Function Attrs: mustprogress nounwind uwtable
define linkonce_odr hidden void @_ZN5boost10scoped_ptrINS_2io18ios_base_all_saverEED2Ev(ptr noundef nonnull align 8 dereferenceable(8) %0) unnamed_addr #5 comdat align 2 {
  %2 = alloca ptr, align 8
  store ptr %0, ptr %2, align 8, !tbaa !3
  %3 = load ptr, ptr %2, align 8
  %4 = getelementptr inbounds nuw %"class.boost::scoped_ptr", ptr %3, i32 0, i32 0
  %5 = load ptr, ptr %4, align 8, !tbaa !32
  call void @_ZN5boost14checked_deleteINS_2io18ios_base_all_saverEEEvPT_(ptr noundef %5) #3
  ret void
}

; Function Attrs: mustprogress nounwind uwtable
define linkonce_odr hidden void @_ZN5boost10scoped_ptrINS_9unit_test16results_reporter6formatEED2Ev(ptr noundef nonnull align 8 dereferenceable(8) %0) unnamed_addr #5 comdat align 2 {
  %2 = alloca ptr, align 8
  store ptr %0, ptr %2, align 8, !tbaa !3
  %3 = load ptr, ptr %2, align 8
  %4 = getelementptr inbounds nuw %"class.boost::scoped_ptr.0", ptr %3, i32 0, i32 0
  %5 = load ptr, ptr %4, align 8, !tbaa !34
  call void @_ZN5boost14checked_deleteINS_9unit_test16results_reporter6formatEEEvPT_(ptr noundef %5) #3
  ret void
}

; Function Attrs: inlinehint mustprogress nounwind uwtable
define internal void @_ZN5boost9unit_test16results_reporter12_GLOBAL__N_121results_reporter_implD2Ev(ptr noundef nonnull align 8 dereferenceable(40) %0) unnamed_addr #8 align 2 {
  %2 = alloca ptr, align 8
  store ptr %0, ptr %2, align 8, !tbaa !3
  %3 = load ptr, ptr %2, align 8
  store ptr getelementptr inbounds inrange(-16, 48) ({ [8 x ptr] }, ptr @_ZTVN5boost9unit_test16results_reporter12_GLOBAL__N_121results_reporter_implE, i32 0, i32 0, i32 2), ptr %3, align 8, !tbaa !16
  %4 = getelementptr inbounds nuw %"struct.boost::unit_test::results_reporter::(anonymous namespace)::results_reporter_impl", ptr %3, i32 0, i32 4
  call void @_ZN5boost10scoped_ptrINS_9unit_test16results_reporter6formatEED2Ev(ptr noundef nonnull align 8 dereferenceable(8) %4) #3
  %5 = getelementptr inbounds nuw %"struct.boost::unit_test::results_reporter::(anonymous namespace)::results_reporter_impl", ptr %3, i32 0, i32 2
  call void @_ZN5boost10scoped_ptrINS_2io18ios_base_all_saverEED2Ev(ptr noundef nonnull align 8 dereferenceable(8) %5) #3
  call void @_ZN5boost9unit_test17test_tree_visitorD2Ev(ptr noundef nonnull align 8 dereferenceable(8) %3) #3
  ret void
}